; Function Attrs: mustprogress uwtable
define hidden noundef i64 @_ZNK2cv4gapi5fluid14BorderHandlerTILi0EE4sizeEv(ptr noundef nonnull align 8 dereferenceable(144) %0) unnamed_addr #4 align 2 {
  %2 = getelementptr inbounds nuw i8, ptr %0, i64 48
  %3 = tail call noundef i64 @_ZNK2cv3Mat5totalEv(ptr noundef nonnull align 8 dereferenceable(96) %2)
  %4 = getelementptr inbounds nuw i8, ptr %0, i64 52
  %5 = load i32, ptr %4, align 4, !tbaa !43
  %6 = icmp sgt i32 %5, 0
  br i1 %6, label %7, label %_ZNK2cv3Mat8elemSizeEv.exit

7:                                                ; preds = %1
  %8 = getelementptr inbounds nuw i8, ptr %0, i64 120
  %9 = load ptr, ptr %8, align 8, !tbaa !34
  %10 = zext nneg i32 %5 to i64
  %11 = getelementptr i64, ptr %9, i64 %10
  %12 = getelementptr i8, ptr %11, i64 -8
  %13 = load i64, ptr %12, align 8, !tbaa !35
  br label %_ZNK2cv3Mat8elemSizeEv.exit

_ZNK2cv3Mat8elemSizeEv.exit:                      ; preds = %1, %7
  %14 = phi i64 [ %13, %7 ], [ 0, %1 ]
  %15 = mul i64 %14, %3
  ret i64 %15
}